target datalayout = "e-m:e-p270:32:32-p271:32:32-p272:64:64-i64:64-i128:128-f80:128-n8:16:32:64-S128"
target triple = "x86_64-pc-linux-gnu"

%struct.Agdesc_s = type { i8, [3 x i8] }
%struct.Agraph_s = type { %struct.Agobj_s, %struct.Agdesc_s, %struct.dtlink_s_, %struct.dtlink_s_, ptr, ptr, ptr, ptr, ptr, ptr, ptr, ptr, ptr }
%struct.Agobj_s = type { %struct.Agtag_s, ptr }
%struct.Agtag_s = type { i32, i64 }
%struct.dtlink_s_ = type { ptr, %union.anon.1 }
%union.anon.1 = type { ptr }
%struct.graphinfo_t = type { %struct.Agrec_s, i8 }
%struct.Agrec_s = type { ptr, ptr }

@doAll = internal global i8 1, align 1
@x_mode = internal global i32 0, align 4
@stderr = external global ptr, align 8
@sortIndex = internal global i32 0, align 4
@sortFinal = internal global i32 0, align 4
@.str.16 = private unnamed_addr constant [54 x i8] c"ccomps: component %d not found in graph %s - ignored\0A\00", align 1
@.str.21 = private unnamed_addr constant [58 x i8] c"integer overflow when trying to allocate %zu * %zu bytes\0A\00", align 1
@.str.22 = private unnamed_addr constant [49 x i8] c"out of memory when trying to allocate %zu bytes\0A\00", align 1

; Function Attrs: nounwind uwtable
define internal void @subGInduce(ptr noundef %0, ptr noundef %1) #0 {
  %3 = alloca ptr, align 8
  %4 = alloca ptr, align 8
  store ptr %0, ptr %3, align 8, !tbaa !11
  store ptr %1, ptr %4, align 8, !tbaa !11
  %5 = load ptr, ptr %3, align 8, !tbaa !11
  %6 = load ptr, ptr %4, align 8, !tbaa !11
  call void @subgInduce(ptr noundef %5, ptr noundef %6, i32 noundef 0)
  ret void
}

; Function Attrs: inlinehint nounwind uwtable
define internal ptr @gv_calloc(i64 noundef %0, i64 noundef %1) #3 {
  %3 = alloca i64, align 8
  %4 = alloca i64, align 8
  %5 = alloca ptr, align 8
  store i64 %0, ptr %3, align 8, !tbaa !42
  store i64 %1, ptr %4, align 8, !tbaa !42
  %6 = load i64, ptr %3, align 8, !tbaa !42
  %7 = icmp ugt i64 %6, 0
  br i1 %7, label %8, label %18

8:                                                ; preds = %2
  %9 = load i64, ptr %3, align 8, !tbaa !42
  %10 = udiv i64 -1, %9
  %11 = load i64, ptr %4, align 8, !tbaa !42
  %12 = icmp ult i64 %10, %11
  br i1 %12, label %13, label %18

13:                                               ; preds = %8
  %14 = load ptr, ptr @stderr, align 8, !tbaa !20
  %15 = load i64, ptr %3, align 8, !tbaa !42
  %16 = load i64, ptr %4, align 8, !tbaa !42
  %17 = call i32 (ptr, ptr, ...) @fprintf(ptr noundef %14, ptr noundef @.str.21, i64 noundef %15, i64 noundef %16) #14
  call void @graphviz_exit(i32 noundef 1) #15
  unreachable

18:                                               ; preds = %8, %2
  call void @llvm.lifetime.start.p0(i64 8, ptr %5) #14
  %19 = load i64, ptr %3, align 8, !tbaa !42
  %20 = load i64, ptr %4, align 8, !tbaa !42
  %21 = call noalias ptr @calloc(i64 noundef %19, i64 noundef %20) #18
  store ptr %21, ptr %5, align 8, !tbaa !51
  %22 = load i64, ptr %3, align 8, !tbaa !42
  %23 = icmp ugt i64 %22, 0
  br i1 %23, label %24, label %36

24:                                               ; preds = %18
  %25 = load i64, ptr %4, align 8, !tbaa !42
  %26 = icmp ugt i64 %25, 0
  br i1 %26, label %27, label %36

27:                                               ; preds = %24
  %28 = load ptr, ptr %5, align 8, !tbaa !51
  %29 = icmp eq ptr %28, null
  br i1 %29, label %30, label %36

30:                                               ; preds = %27
  %31 = load ptr, ptr @stderr, align 8, !tbaa !20
  %32 = load i64, ptr %3, align 8, !tbaa !42
  %33 = load i64, ptr %4, align 8, !tbaa !42
  %34 = mul i64 %32, %33
  %35 = call i32 (ptr, ptr, ...) @fprintf(ptr noundef %31, ptr noundef @.str.22, i64 noundef %34) #14
  call void @graphviz_exit(i32 noundef 1) #15
  unreachable

36:                                               ; preds = %27, %24, %18
  %37 = load ptr, ptr %5, align 8, !tbaa !51
  call void @llvm.lifetime.end.p0(i64 8, ptr %5) #14
  ret ptr %37
}

; Function Attrs: nounwind uwtable
define internal void @printSorted(ptr noundef %0, i64 noundef %1) #0 {
  %3 = alloca ptr, align 8
  %4 = alloca i64, align 8
  %5 = alloca ptr, align 8
  %6 = alloca i64, align 8
  %7 = alloca ptr, align 8
  %8 = alloca i32, align 4
  %9 = alloca i64, align 8
  %10 = alloca ptr, align 8
  %11 = alloca ptr, align 8
  %12 = alloca i32, align 4
  %13 = alloca ptr, align 8
  store ptr %0, ptr %3, align 8, !tbaa !11
  store i64 %1, ptr %4, align 8, !tbaa !42
  call void @llvm.lifetime.start.p0(i64 8, ptr %5) #14
  %14 = load i64, ptr %4, align 8, !tbaa !42
  %15 = call ptr @gv_calloc(i64 noundef %14, i64 noundef 8)
  store ptr %15, ptr %5, align 8, !tbaa !68
  call void @llvm.lifetime.start.p0(i64 8, ptr %6) #14
  store i64 0, ptr %6, align 8, !tbaa !42
  call void @llvm.lifetime.start.p0(i64 8, ptr %7) #14
  %16 = load ptr, ptr %3, align 8, !tbaa !11
  %17 = call ptr @agfstsubg(ptr noundef %16)
  store ptr %17, ptr %7, align 8, !tbaa !11
  br label %18

18:                                               ; preds = %37, %2
  %19 = load ptr, ptr %7, align 8, !tbaa !11
  %20 = icmp ne ptr %19, null
  br i1 %20, label %22, label %21

21:                                               ; preds = %18
  call void @llvm.lifetime.end.p0(i64 8, ptr %7) #14
  br label %40

22:                                               ; preds = %18
  %23 = load ptr, ptr %7, align 8, !tbaa !11
  %24 = getelementptr inbounds nuw %struct.Agraph_s, ptr %23, i32 0, i32 0
  %25 = getelementptr inbounds nuw %struct.Agobj_s, ptr %24, i32 0, i32 1
  %26 = load ptr, ptr %25, align 8, !tbaa !27
  %27 = getelementptr inbounds nuw %struct.graphinfo_t, ptr %26, i32 0, i32 1
  %28 = load i8, ptr %27, align 8, !tbaa !39, !range !23, !noundef !24
  %29 = trunc i8 %28 to i1
  br i1 %29, label %30, label %36

30:                                               ; preds = %22
  %31 = load ptr, ptr %7, align 8, !tbaa !11
  %32 = load ptr, ptr %5, align 8, !tbaa !68
  %33 = load i64, ptr %6, align 8, !tbaa !42
  %34 = add i64 %33, 1
  store i64 %34, ptr %6, align 8, !tbaa !42
  %35 = getelementptr inbounds nuw ptr, ptr %32, i64 %33
  store ptr %31, ptr %35, align 8, !tbaa !11
  br label %36

36:                                               ; preds = %30, %22
  br label %37

37:                                               ; preds = %36
  %38 = load ptr, ptr %7, align 8, !tbaa !11
  %39 = call ptr @agnxtsubg(ptr noundef %38)
  store ptr %39, ptr %7, align 8, !tbaa !11
  br label %18, !llvm.loop !70

40:                                               ; preds = %21
  %41 = load ptr, ptr %5, align 8, !tbaa !68
  %42 = load i64, ptr %4, align 8, !tbaa !42
  call void @qsort(ptr noundef %41, i64 noundef %42, i64 noundef 8, ptr noundef @cmp)
  %43 = load i32, ptr @sortIndex, align 4, !tbaa !4
  %44 = icmp sge i32 %43, 0
  br i1 %44, label %45, label %149

45:                                               ; preds = %40
  %46 = load i32, ptr @x_mode, align 4, !tbaa !4
  %47 = icmp eq i32 %46, 1
  br i1 %47, label %48, label %100

48:                                               ; preds = %45
  %49 = load i32, ptr @sortIndex, align 4, !tbaa !4
  %50 = sext i32 %49 to i64
  %51 = load i64, ptr %4, align 8, !tbaa !42
  %52 = icmp uge i64 %50, %51
  br i1 %52, label %53, label %60

53:                                               ; preds = %48
  %54 = load ptr, ptr @stderr, align 8, !tbaa !20
  %55 = load i32, ptr @sortIndex, align 4, !tbaa !4
  %56 = load ptr, ptr %3, align 8, !tbaa !11
  %57 = call ptr @agnameof(ptr noundef %56)
  %58 = call i32 (ptr, ptr, ...) @fprintf(ptr noundef %54, ptr noundef @.str.16, i32 noundef %55, ptr noundef %57) #14
  %59 = load ptr, ptr %5, align 8, !tbaa !68
  call void @free(ptr noundef %59) #14
  store i32 1, ptr %8, align 4
  br label %172

60:                                               ; preds = %48
  call void @llvm.lifetime.start.p0(i64 8, ptr %9) #14
  %61 = load i32, ptr @sortFinal, align 4, !tbaa !4
  %62 = load i32, ptr @sortIndex, align 4, !tbaa !4
  %63 = icmp sge i32 %61, %62
  br i1 %63, label %64, label %74

64:                                               ; preds = %60
  %65 = load i32, ptr @sortFinal, align 4, !tbaa !4
  %66 = sext i32 %65 to i64
  store i64 %66, ptr %9, align 8, !tbaa !42
  %67 = load i64, ptr %9, align 8, !tbaa !42
  %68 = load i64, ptr %4, align 8, !tbaa !42
  %69 = icmp uge i64 %67, %68
  br i1 %69, label %70, label %73

70:                                               ; preds = %64
  %71 = load i64, ptr %4, align 8, !tbaa !42
  %72 = sub i64 %71, 1
  store i64 %72, ptr %9, align 8, !tbaa !42
  br label %73

73:                                               ; preds = %70, %64
  br label %77

74:                                               ; preds = %60
  %75 = load i64, ptr %4, align 8, !tbaa !42
  %76 = sub i64 %75, 1
  store i64 %76, ptr %9, align 8, !tbaa !42
  br label %77

77:                                               ; preds = %74, %73
  %78 = load i32, ptr @sortIndex, align 4, !tbaa !4
  %79 = sext i32 %78 to i64
  store i64 %79, ptr %6, align 8, !tbaa !42
  br label %80

80:                                               ; preds = %96, %77
  %81 = load i64, ptr %6, align 8, !tbaa !42
  %82 = load i64, ptr %9, align 8, !tbaa !42
  %83 = icmp ule i64 %81, %82
  br i1 %83, label %84, label %99

84:                                               ; preds = %80
  call void @llvm.lifetime.start.p0(i64 8, ptr %10) #14
  %85 = load ptr, ptr %5, align 8, !tbaa !68
  %86 = load i64, ptr %6, align 8, !tbaa !42
  %87 = getelementptr inbounds nuw ptr, ptr %85, i64 %86
  %88 = load ptr, ptr %87, align 8, !tbaa !11
  store ptr %88, ptr %10, align 8, !tbaa !11
  %89 = load i8, ptr @doAll, align 1, !tbaa !17, !range !23, !noundef !24
  %90 = trunc i8 %89 to i1
  br i1 %90, label %91, label %94

91:                                               ; preds = %84
  %92 = load ptr, ptr %3, align 8, !tbaa !11
  %93 = load ptr, ptr %10, align 8, !tbaa !11
  call void @subGInduce(ptr noundef %92, ptr noundef %93)
  br label %94

94:                                               ; preds = %91, %84
  %95 = load ptr, ptr %10, align 8, !tbaa !11
  call void @gwrite(ptr noundef %95)
  call void @llvm.lifetime.end.p0(i64 8, ptr %10) #14
  br label %96

96:                                               ; preds = %94
  %97 = load i64, ptr %6, align 8, !tbaa !42
  %98 = add i64 %97, 1
  store i64 %98, ptr %6, align 8, !tbaa !42
  br label %80, !llvm.loop !71

99:                                               ; preds = %80
  call void @llvm.lifetime.end.p0(i64 8, ptr %9) #14
  br label %148

100:                                              ; preds = %45
  %101 = load i32, ptr @x_mode, align 4, !tbaa !4
  %102 = icmp eq i32 %101, 2
  br i1 %102, label %103, label %147

103:                                              ; preds = %100
  %104 = load i32, ptr @sortFinal, align 4, !tbaa !4
  %105 = icmp eq i32 %104, -1
  br i1 %105, label %106, label %111

106:                                              ; preds = %103
  %107 = load ptr, ptr %5, align 8, !tbaa !68
  %108 = getelementptr inbounds ptr, ptr %107, i64 0
  %109 = load ptr, ptr %108, align 8, !tbaa !11
  %110 = call i32 @agnnodes(ptr noundef %109)
  store i32 %110, ptr @sortFinal, align 4, !tbaa !4
  br label %111

111:                                              ; preds = %106, %103
  store i64 0, ptr %6, align 8, !tbaa !42
  br label %112

112:                                              ; preds = %143, %111
  %113 = load i64, ptr %6, align 8, !tbaa !42
  %114 = load i64, ptr %4, align 8, !tbaa !42
  %115 = icmp ult i64 %113, %114
  br i1 %115, label %116, label %146

116:                                              ; preds = %112
  call void @llvm.lifetime.start.p0(i64 8, ptr %11) #14
  %117 = load ptr, ptr %5, align 8, !tbaa !68
  %118 = load i64, ptr %6, align 8, !tbaa !42
  %119 = getelementptr inbounds nuw ptr, ptr %117, i64 %118
  %120 = load ptr, ptr %119, align 8, !tbaa !11
  store ptr %120, ptr %11, align 8, !tbaa !11
  call void @llvm.lifetime.start.p0(i64 4, ptr %12) #14
  %121 = load ptr, ptr %11, align 8, !tbaa !11
  %122 = call i32 @agnnodes(ptr noundef %121)
  store i32 %122, ptr %12, align 4, !tbaa !4
  %123 = load i32, ptr %12, align 4, !tbaa !4
  %124 = load i32, ptr @sortFinal, align 4, !tbaa !4
  %125 = icmp sgt i32 %123, %124
  br i1 %125, label %126, label %127

126:                                              ; preds = %116
  store i32 10, ptr %8, align 4
  br label %140

127:                                              ; preds = %116
  %128 = load i32, ptr %12, align 4, !tbaa !4
  %129 = load i32, ptr @sortIndex, align 4, !tbaa !4
  %130 = icmp slt i32 %128, %129
  br i1 %130, label %131, label %132

131:                                              ; preds = %127
  store i32 8, ptr %8, align 4
  br label %140

132:                                              ; preds = %127
  %133 = load i8, ptr @doAll, align 1, !tbaa !17, !range !23, !noundef !24
  %134 = trunc i8 %133 to i1
  br i1 %134, label %135, label %138

135:                                              ; preds = %132
  %136 = load ptr, ptr %3, align 8, !tbaa !11
  %137 = load ptr, ptr %11, align 8, !tbaa !11
  call void @subGInduce(ptr noundef %136, ptr noundef %137)
  br label %138

138:                                              ; preds = %135, %132
  %139 = load ptr, ptr %11, align 8, !tbaa !11
  call void @gwrite(ptr noundef %139)
  store i32 0, ptr %8, align 4
  br label %140

140:                                              ; preds = %138, %131, %126
  call void @llvm.lifetime.end.p0(i64 4, ptr %12) #14
  call void @llvm.lifetime.end.p0(i64 8, ptr %11) #14
  %141 = load i32, ptr %8, align 4
  switch i32 %141, label %175 [
    i32 0, label %142
    i32 10, label %143
    i32 8, label %146
  ]

142:                                              ; preds = %140
  br label %143

143:                                              ; preds = %142, %140
  %144 = load i64, ptr %6, align 8, !tbaa !42
  %145 = add i64 %144, 1
  store i64 %145, ptr %6, align 8, !tbaa !42
  br label %112, !llvm.loop !72

146:                                              ; preds = %140, %112
  br label %147

147:                                              ; preds = %146, %100
  br label %148

148:                                              ; preds = %147, %99
  br label %170

149:                                              ; preds = %40
  store i64 0, ptr %6, align 8, !tbaa !42
  br label %150

150:                                              ; preds = %166, %149
  %151 = load i64, ptr %6, align 8, !tbaa !42
  %152 = load i64, ptr %4, align 8, !tbaa !42
  %153 = icmp ult i64 %151, %152
  br i1 %153, label %154, label %169

154:                                              ; preds = %150
  call void @llvm.lifetime.start.p0(i64 8, ptr %13) #14
  %155 = load ptr, ptr %5, align 8, !tbaa !68
  %156 = load i64, ptr %6, align 8, !tbaa !42
  %157 = getelementptr inbounds nuw ptr, ptr %155, i64 %156
  %158 = load ptr, ptr %157, align 8, !tbaa !11
  store ptr %158, ptr %13, align 8, !tbaa !11
  %159 = load i8, ptr @doAll, align 1, !tbaa !17, !range !23, !noundef !24
  %160 = trunc i8 %159 to i1
  br i1 %160, label %161, label %164

161:                                              ; preds = %154
  %162 = load ptr, ptr %3, align 8, !tbaa !11
  %163 = load ptr, ptr %13, align 8, !tbaa !11
  call void @subGInduce(ptr noundef %162, ptr noundef %163)
  br label %164

164:                                              ; preds = %161, %154
  %165 = load ptr, ptr %13, align 8, !tbaa !11
  call void @gwrite(ptr noundef %165)
  call void @llvm.lifetime.end.p0(i64 8, ptr %13) #14
  br label %166

166:                                              ; preds = %164
  %167 = load i64, ptr %6, align 8, !tbaa !42
  %168 = add i64 %167, 1
  store i64 %168, ptr %6, align 8, !tbaa !42
  br label %150, !llvm.loop !73

169:                                              ; preds = %150
  br label %170

170:                                              ; preds = %169, %148
  %171 = load ptr, ptr %5, align 8, !tbaa !68
  call void @free(ptr noundef %171) #14
  store i32 0, ptr %8, align 4
  br label %172

172:                                              ; preds = %170, %53
  call void @llvm.lifetime.end.p0(i64 8, ptr %6) #14
  call void @llvm.lifetime.end.p0(i64 8, ptr %5) #14
  %173 = load i32, ptr %8, align 4
  switch i32 %173, label %175 [
    i32 0, label %174
    i32 1, label %174
  ]

174:                                              ; preds = %172, %172
  ret void

175:                                              ; preds = %172, %140
  unreachable
}