; Function Attrs: nounwind uwtable
define internal fastcc void @printSorted(ptr noundef nonnull %0, i64 noundef %1) unnamed_addr #11 {
  %.not.i = icmp eq i64 %1, 0
  br i1 %.not.i, label %.thread.i, label %4

.thread.i:                                        ; preds = %2
  %3 = tail call noalias ptr @calloc(i64 noundef 0, i64 noundef 8) #29
  br label %gv_calloc.exit

4:                                                ; preds = %2
  %mul.ov.i = icmp ugt i64 %1, 2305843009213693951
  br i1 %mul.ov.i, label %5, label %8

5:                                                ; preds = %4
  %6 = load ptr, ptr @stderr, align 8, !tbaa !14
  %7 = tail call i32 (ptr, ptr, ...) @fprintf(ptr noundef %6, ptr noundef nonnull @.str.21, i64 noundef %1, i64 noundef 8) #25
  tail call fastcc void @graphviz_exit(i32 noundef 1) #26
  unreachable

8:                                                ; preds = %4
  %9 = tail call noalias ptr @calloc(i64 noundef %1, i64 noundef 8) #29
  %10 = icmp eq ptr %9, null
  br i1 %10, label %11, label %gv_calloc.exit

11:                                               ; preds = %8
  %12 = load ptr, ptr @stderr, align 8, !tbaa !14
  %13 = shl nuw i64 %1, 3
  %14 = tail call i32 (ptr, ptr, ...) @fprintf(ptr noundef %12, ptr noundef nonnull @.str.22, i64 noundef %13) #25
  tail call fastcc void @graphviz_exit(i32 noundef 1) #26
  unreachable

gv_calloc.exit:                                   ; preds = %.thread.i, %8
  %15 = phi ptr [ %3, %.thread.i ], [ %9, %8 ]
  %16 = tail call ptr @agfstsubg(ptr noundef nonnull %0) #23
  %.not66 = icmp eq ptr %16, null
  br i1 %.not66, label %._crit_edge, label %.lr.ph

._crit_edge:                                      ; preds = %27, %gv_calloc.exit
  tail call void @qsort(ptr noundef %15, i64 noundef %1, i64 noundef 8, ptr noundef nonnull @cmp) #23
  %17 = load i32, ptr @sortIndex, align 4, !tbaa !4
  %18 = icmp sgt i32 %17, -1
  br i1 %18, label %29, label %.preheader

.preheader:                                       ; preds = %._crit_edge
  br i1 %.not.i, label %.loopexit, label %.lr.ph70

.lr.ph:                                           ; preds = %gv_calloc.exit, %27
  %.068 = phi i64 [ %.1, %27 ], [ 0, %gv_calloc.exit ]
  %.04667 = phi ptr [ %28, %27 ], [ %16, %gv_calloc.exit ]
  %19 = getelementptr inbounds nuw i8, ptr %.04667, i64 16
  %20 = load ptr, ptr %19, align 8, !tbaa !39
  %21 = getelementptr inbounds nuw i8, ptr %20, i64 16
  %22 = load i8, ptr %21, align 8, !tbaa !45, !range !68, !noundef !69
  %23 = trunc nuw i8 %22 to i1
  br i1 %23, label %24, label %27

24:                                               ; preds = %.lr.ph
  %25 = add i64 %.068, 1
  %26 = getelementptr inbounds nuw ptr, ptr %15, i64 %.068
  store ptr %.04667, ptr %26, align 8, !tbaa !70
  br label %27

27:                                               ; preds = %.lr.ph, %24
  %.1 = phi i64 [ %25, %24 ], [ %.068, %.lr.ph ]
  %28 = tail call ptr @agnxtsubg(ptr noundef nonnull %.04667) #23
  %.not = icmp eq ptr %28, null
  br i1 %.not, label %._crit_edge, label %.lr.ph, !llvm.loop !71

29:                                               ; preds = %._crit_edge
  %30 = load i32, ptr @x_mode, align 4, !tbaa !4
  switch i32 %30, label %.loopexit [
    i32 1, label %31
    i32 2, label %46
  ]

31:                                               ; preds = %29
  %32 = zext nneg i32 %17 to i64
  %.not57 = icmp ugt i64 %1, %32
  br i1 %.not57, label %37, label %33

33:                                               ; preds = %31
  %34 = load ptr, ptr @stderr, align 8, !tbaa !14
  %35 = tail call ptr @agnameof(ptr noundef nonnull %0) #23
  %36 = tail call i32 (ptr, ptr, ...) @fprintf(ptr noundef %34, ptr noundef nonnull @.str.16, i32 noundef %17, ptr noundef %35) #25
  br label %.loopexit

37:                                               ; preds = %31
  %38 = load i32, ptr @sortFinal, align 4, !tbaa !4
  %.not58 = icmp slt i32 %38, %17
  %39 = add i64 %1, -1
  %40 = zext nneg i32 %38 to i64
  %.not59 = icmp ugt i64 %1, %40
  %spec.select = select i1 %.not59, i64 %40, i64 %39
  %.048 = select i1 %.not58, i64 %39, i64 %spec.select
  %.not6075 = icmp ult i64 %.048, %32
  br i1 %.not6075, label %.loopexit, label %.lr.ph78

.lr.ph78:                                         ; preds = %37, %44
  %.276 = phi i64 [ %45, %44 ], [ %32, %37 ]
  %41 = getelementptr inbounds nuw ptr, ptr %15, i64 %.276
  %42 = load ptr, ptr %41, align 8, !tbaa !70
  %.b56 = load i1, ptr @doAll, align 1
  br i1 %.b56, label %44, label %43

43:                                               ; preds = %.lr.ph78
  tail call fastcc void @subgInduce(ptr noundef nonnull %0, ptr noundef %42, i32 noundef 0)
  br label %44

44:                                               ; preds = %43, %.lr.ph78
  tail call fastcc void @gwrite(ptr noundef %42)
  %45 = add i64 %.276, 1
  %exitcond84.not = icmp eq i64 %.276, %.048
  br i1 %exitcond84.not, label %.loopexit, label %.lr.ph78, !llvm.loop !72

46:                                               ; preds = %29
  %47 = load i32, ptr @sortFinal, align 4, !tbaa !4
  %48 = icmp eq i32 %47, -1
  br i1 %48, label %49, label %52

49:                                               ; preds = %46
  %50 = load ptr, ptr %15, align 8, !tbaa !70
  %51 = tail call i32 @agnnodes(ptr noundef %50) #23
  store i32 %51, ptr @sortFinal, align 4, !tbaa !4
  br label %52

52:                                               ; preds = %49, %46
  br i1 %.not.i, label %.loopexit, label %.lr.ph73

.lr.ph73:                                         ; preds = %52, %64
  %.371 = phi i64 [ %65, %64 ], [ 0, %52 ]
  %53 = getelementptr inbounds nuw ptr, ptr %15, i64 %.371
  %54 = load ptr, ptr %53, align 8, !tbaa !70
  %55 = tail call i32 @agnnodes(ptr noundef %54) #23
  %56 = load i32, ptr @sortFinal, align 4, !tbaa !4
  %57 = icmp sgt i32 %55, %56
  br i1 %57, label %64, label %58

58:                                               ; preds = %.lr.ph73
  %59 = load i32, ptr @sortIndex, align 4, !tbaa !4
  %60 = icmp slt i32 %55, %59
  br i1 %60, label %.loopexit, label %61

61:                                               ; preds = %58
  %.b55 = load i1, ptr @doAll, align 1
  br i1 %.b55, label %63, label %62

62:                                               ; preds = %61
  tail call fastcc void @subgInduce(ptr noundef nonnull %0, ptr noundef %54, i32 noundef 0)
  br label %63

63:                                               ; preds = %62, %61
  tail call fastcc void @gwrite(ptr noundef %54)
  br label %64

64:                                               ; preds = %63, %.lr.ph73
  %65 = add nuw i64 %.371, 1
  %exitcond83.not = icmp eq i64 %65, %1
  br i1 %exitcond83.not, label %.loopexit, label %.lr.ph73, !llvm.loop !73

.lr.ph70:                                         ; preds = %.preheader, %69
  %.469 = phi i64 [ %70, %69 ], [ 0, %.preheader ]
  %66 = getelementptr inbounds nuw ptr, ptr %15, i64 %.469
  %67 = load ptr, ptr %66, align 8, !tbaa !70
  %.b = load i1, ptr @doAll, align 1
  br i1 %.b, label %69, label %68

68:                                               ; preds = %.lr.ph70
  tail call fastcc void @subgInduce(ptr noundef nonnull %0, ptr noundef %67, i32 noundef 0)
  br label %69

69:                                               ; preds = %68, %.lr.ph70
  tail call fastcc void @gwrite(ptr noundef %67)
  %70 = add nuw i64 %.469, 1
  %exitcond.not = icmp eq i64 %70, %1
  br i1 %exitcond.not, label %.loopexit, label %.lr.ph70, !llvm.loop !74

.loopexit:                                        ; preds = %69, %58, %64, %44, %29, %37, %52, %.preheader, %33
  tail call void @free(ptr noundef %15) #23
  ret void
}